; Function Attrs: mustprogress nounwind uwtable
define internal void @_ZN12_GLOBAL__N_126VariadicIdentifierArgumentD2Ev(ptr noundef nonnull align 8 dereferenceable(224) %0) unnamed_addr #0 align 2 {
  store ptr getelementptr inbounds inrange(-16, 216) (i8, ptr @_ZTVN12_GLOBAL__N_116VariadicArgumentE, i64 16), ptr %0, align 8
  %2 = getelementptr inbounds nuw i8, ptr %0, i64 192
  tail call void @_ZNSt7__cxx1112basic_stringIcSt11char_traitsIcESaIcEED1Ev(ptr noundef nonnull align 8 dereferenceable(32) %2) #22
  %3 = getelementptr inbounds nuw i8, ptr %0, i64 160
  tail call void @_ZNSt7__cxx1112basic_stringIcSt11char_traitsIcESaIcEED1Ev(ptr noundef nonnull align 8 dereferenceable(32) %3) #22
  %4 = getelementptr inbounds nuw i8, ptr %0, i64 128
  tail call void @_ZNSt7__cxx1112basic_stringIcSt11char_traitsIcESaIcEED1Ev(ptr noundef nonnull align 8 dereferenceable(32) %4) #22
  %5 = getelementptr inbounds nuw i8, ptr %0, i64 96
  tail call void @_ZNSt7__cxx1112basic_stringIcSt11char_traitsIcESaIcEED1Ev(ptr noundef nonnull align 8 dereferenceable(32) %5) #22
  store ptr getelementptr inbounds inrange(-16, 200) (i8, ptr @_ZTVN12_GLOBAL__N_18ArgumentE, i64 16), ptr %0, align 8
  %6 = getelementptr inbounds nuw i8, ptr %0, i64 40
  tail call void @_ZNSt7__cxx1112basic_stringIcSt11char_traitsIcESaIcEED1Ev(ptr noundef nonnull align 8 dereferenceable(32) %6) #22
  %7 = getelementptr inbounds nuw i8, ptr %0, i64 8
  tail call void @_ZNSt7__cxx1112basic_stringIcSt11char_traitsIcESaIcEED1Ev(ptr noundef nonnull align 8 dereferenceable(32) %7) #22
  ret void
}